; ModuleID = '29/1826.c'
source_filename = "29/1826.c"
target datalayout = "e-m:e-p270:32:32-p271:32:32-p272:64:64-i64:64-f80:128-n8:16:32:64-S128"
target triple = "x86_64-pc-linux-gnu"

@.str = private unnamed_addr constant [3 x i8] c"%d\00", align 1
@.str.1 = private unnamed_addr constant [6 x i8] c"%.3f\0A\00", align 1

; Function Attrs: noinline nounwind uwtable
define dso_local i32 @main() #0 {
  %1 = alloca i32, align 4
  %2 = alloca i32, align 4
  %3 = alloca [100 x i32], align 16
  %4 = alloca i32, align 4
  %5 = alloca i32, align 4
  %6 = alloca float, align 4
  %7 = alloca [100 x float], align 16
  store i32 0, i32* %1, align 4
  %8 = call i32 (i8*, ...) @__isoc99_scanf(i8* getelementptr inbounds ([3 x i8], [3 x i8]* @.str, i64 0, i64 0), i32* %2)
  store i32 1, i32* %4, align 4
  br label %9

9:                                                ; preds = %18, %0
  %10 = load i32, i32* %4, align 4
  %11 = load i32, i32* %2, align 4
  %12 = icmp sle i32 %10, %11
  br i1 %12, label %13, label %21

13:                                               ; preds = %9
  %14 = load i32, i32* %4, align 4
  %15 = sext i32 %14 to i64
  %16 = getelementptr inbounds [100 x i32], [100 x i32]* %3, i64 0, i64 %15
  %17 = call i32 (i8*, ...) @__isoc99_scanf(i8* getelementptr inbounds ([3 x i8], [3 x i8]* @.str, i64 0, i64 0), i32* %16)
  br label %18

18:                                               ; preds = %13
  %19 = load i32, i32* %4, align 4
  %20 = add nsw i32 %19, 1
  store i32 %20, i32* %4, align 4
  br label %9

21:                                               ; preds = %9
  store i32 1, i32* %4, align 4
  br label %22

22:                                               ; preds = %62, %21
  %23 = load i32, i32* %4, align 4
  %24 = load i32, i32* %2, align 4
  %25 = icmp sle i32 %23, %24
  br i1 %25, label %26, label %65

26:                                               ; preds = %22
  %27 = load i32, i32* %4, align 4
  %28 = sext i32 %27 to i64
  %29 = getelementptr inbounds [100 x float], [100 x float]* %7, i64 0, i64 %28
  store float 0.000000e+00, float* %29, align 4
  store float 1.000000e+00, float* %6, align 4
  store i32 1, i32* %5, align 4
  br label %30

30:                                               ; preds = %52, %26
  %31 = load i32, i32* %5, align 4
  %32 = load i32, i32* %4, align 4
  %33 = sext i32 %32 to i64
  %34 = getelementptr inbounds [100 x i32], [100 x i32]* %3, i64 0, i64 %33
  %35 = load i32, i32* %34, align 4
  %36 = icmp sle i32 %31, %35
  br i1 %36, label %37, label %55

37:                                               ; preds = %30
  %38 = load float, float* %6, align 4
  %39 = fpext float %38 to double
  %40 = fdiv double 1.000000e+00, %39
  %41 = fadd double 1.000000e+00, %40
  %42 = fptrunc double %41 to float
  store float %42, float* %6, align 4
  %43 = load i32, i32* %4, align 4
  %44 = sext i32 %43 to i64
  %45 = getelementptr inbounds [100 x float], [100 x float]* %7, i64 0, i64 %44
  %46 = load float, float* %45, align 4
  %47 = load float, float* %6, align 4
  %48 = fadd float %46, %47
  %49 = load i32, i32* %4, align 4
  %50 = sext i32 %49 to i64
  %51 = getelementptr inbounds [100 x float], [100 x float]* %7, i64 0, i64 %50
  store float %48, float* %51, align 4
  br label %52

52:                                               ; preds = %37
  %53 = load i32, i32* %5, align 4
  %54 = add nsw i32 %53, 1
  store i32 %54, i32* %5, align 4
  br label %30

55:                                               ; preds = %30
  %56 = load i32, i32* %4, align 4
  %57 = sext i32 %56 to i64
  %58 = getelementptr inbounds [100 x float], [100 x float]* %7, i64 0, i64 %57
  %59 = load float, float* %58, align 4
  %60 = fpext float %59 to double
  %61 = call i32 (i8*, ...) @printf(i8* getelementptr inbounds ([6 x i8], [6 x i8]* @.str.1, i64 0, i64 0), double %60)
  br label %62

62:                                               ; preds = %55
  %63 = load i32, i32* %4, align 4
  %64 = add nsw i32 %63, 1
  store i32 %64, i32* %4, align 4
  br label %22

65:                                               ; preds = %22
  ret i32 0
}

declare dso_local i32 @__isoc99_scanf(i8*, ...) #1

declare dso_local i32 @printf(i8*, ...) #1


!llvm.module.flags = !{!0}
!llvm.ident = !{!1}

!0 = !{i32 1, !"wchar_size", i32 4}
!1 = !{!"clang version 10.0.0-4ubuntu1 "}
